; Function Attrs: mustprogress uwtable
define void @_ZN8Paintbox19restorePreviousTypeEv(ptr nocapture noundef nonnull readonly align 8 dereferenceable(844) %0) local_unnamed_addr #0 align 2 {
  %2 = getelementptr inbounds i8, ptr %0, i64 104
  %3 = load ptr, ptr %2, align 8
  %4 = getelementptr inbounds i8, ptr %0, i64 816
  %5 = load i32, ptr %4, align 8
  %6 = load ptr, ptr %3, align 8
  %7 = getelementptr inbounds i8, ptr %6, i64 152
  %8 = load ptr, ptr %7, align 8
  %9 = tail call noundef ptr %8(ptr noundef nonnull align 8 dereferenceable(28) %3, i32 noundef %5)
  %10 = load ptr, ptr %9, align 8
  %11 = getelementptr inbounds i8, ptr %10, i64 104
  %12 = load ptr, ptr %11, align 8
  %13 = tail call noundef ptr %12(ptr noundef nonnull align 8 dereferenceable(12) %9)
  %14 = icmp ne ptr %13, null
  tail call void @llvm.assume(i1 %14)
  %15 = tail call ptr @__dynamic_cast(ptr nonnull %13, ptr nonnull @_ZTI7QWidget, ptr nonnull @_ZTI11QToolButton, i64 0) #18
  tail call void @_ZN15QAbstractButton6toggleEv(ptr noundef nonnull align 8 dereferenceable(48) %15)
  ret void
}